; ModuleID = 'source-C-CXX/48/1002.cpp'
source_filename = "source-C-CXX/48/1002.cpp"
target datalayout = "e-m:e-p270:32:32-p271:32:32-p272:64:64-i64:64-f80:128-n8:16:32:64-S128"
target triple = "x86_64-pc-linux-gnu"

%"class.std::ios_base::Init" = type { i8 }
%"class.std::basic_istream" = type { i32 (...)**, i64, %"class.std::basic_ios" }
%"class.std::basic_ios" = type { %"class.std::ios_base", %"class.std::basic_ostream"*, i8, i8, %"class.std::basic_streambuf"*, %"class.std::ctype"*, %"class.std::num_put"*, %"class.std::num_get"* }
%"class.std::ios_base" = type { i32 (...)**, i64, i64, i32, i32, i32, %"struct.std::ios_base::_Callback_list"*, %"struct.std::ios_base::_Words", [8 x %"struct.std::ios_base::_Words"], i32, %"struct.std::ios_base::_Words"*, %"class.std::locale" }
%"struct.std::ios_base::_Callback_list" = type { %"struct.std::ios_base::_Callback_list"*, void (i32, %"class.std::ios_base"*, i32)*, i32, i32 }
%"struct.std::ios_base::_Words" = type { i8*, i64 }
%"class.std::locale" = type { %"class.std::locale::_Impl"* }
%"class.std::locale::_Impl" = type { i32, %"class.std::locale::facet"**, i64, %"class.std::locale::facet"**, i8** }
%"class.std::locale::facet" = type <{ i32 (...)**, i32, [4 x i8] }>
%"class.std::basic_ostream" = type { i32 (...)**, %"class.std::basic_ios" }
%"class.std::basic_streambuf" = type { i32 (...)**, i8*, i8*, i8*, i8*, i8*, i8*, %"class.std::locale" }
%"class.std::ctype" = type <{ %"class.std::locale::facet.base", [4 x i8], %struct.__locale_struct*, i8, [7 x i8], i32*, i32*, i16*, i8, [256 x i8], [256 x i8], i8, [6 x i8] }>
%"class.std::locale::facet.base" = type <{ i32 (...)**, i32 }>
%struct.__locale_struct = type { [13 x %struct.__locale_data*], i16*, i32*, i32*, [13 x i8*] }
%struct.__locale_data = type opaque
%"class.std::num_put" = type { %"class.std::locale::facet.base", [4 x i8] }
%"class.std::num_get" = type { %"class.std::locale::facet.base", [4 x i8] }

@_ZStL8__ioinit = internal global %"class.std::ios_base::Init" zeroinitializer, align 1
@__dso_handle = external hidden global i8
@_ZSt3cin = external global %"class.std::basic_istream", align 8
@_ZSt4cout = external global %"class.std::basic_ostream", align 8
@llvm.global_ctors = appending global [1 x { i32, void ()*, i8* }] [{ i32, void ()*, i8* } { i32 65535, void ()* @_GLOBAL__sub_I_1002.cpp, i8* null }]

declare void @_ZNSt8ios_base4InitC1Ev(%"class.std::ios_base::Init"* nonnull align 1 dereferenceable(1)) unnamed_addr #0

; Function Attrs: nounwind
declare void @_ZNSt8ios_base4InitD1Ev(%"class.std::ios_base::Init"* nonnull align 1 dereferenceable(1)) unnamed_addr #1

; Function Attrs: nofree nounwind
declare i32 @__cxa_atexit(void (i8*)*, i8*, i8*) local_unnamed_addr #2

; Function Attrs: mustprogress norecurse sspstrong uwtable
define dso_local i32 @main() local_unnamed_addr #3 {
  %1 = alloca i8, align 1
  %2 = alloca [501 x i8], align 16
  %3 = getelementptr inbounds [501 x i8], [501 x i8]* %2, i64 0, i64 0
  call void @llvm.lifetime.start.p0i8(i64 501, i8* nonnull %3) #7
  call void @_ZSt17__istream_extractRSiPcl(%"class.std::basic_istream"* nonnull align 8 dereferenceable(16) @_ZSt3cin, i8* nonnull %3, i64 501)
  %4 = getelementptr inbounds [501 x i8], [501 x i8]* %2, i64 0, i64 1
  %5 = load i8, i8* %4, align 1, !tbaa !5
  %6 = icmp eq i8 %5, 0
  %7 = load i8, i8* %3, align 16
  %8 = icmp eq i8 %7, 0
  %9 = select i1 %6, i1 true, i1 %8
  br i1 %9, label %90, label %10

10:                                               ; preds = %0, %87
  %11 = phi i8 [ %89, %87 ], [ 1, %0 ]
  %12 = phi i64 [ %83, %87 ], [ 1, %0 ]
  %13 = phi i64 [ %88, %87 ], [ 2, %0 ]
  %14 = icmp eq i8 %11, 0
  br i1 %14, label %82, label %15

15:                                               ; preds = %10, %77
  %16 = phi i64 [ %78, %77 ], [ 0, %10 ]
  %17 = add nuw nsw i64 %16, %12
  %18 = trunc i64 %17 to i32
  br label %19

19:                                               ; preds = %15, %19
  %20 = phi i64 [ 0, %15 ], [ %32, %19 ]
  %21 = phi i64 [ %16, %15 ], [ %36, %19 ]
  %22 = phi i32 [ %18, %15 ], [ %35, %19 ]
  %23 = phi i32 [ 1, %15 ], [ %31, %19 ]
  %24 = sext i32 %22 to i64
  %25 = getelementptr inbounds [501 x i8], [501 x i8]* %2, i64 0, i64 %24
  %26 = load i8, i8* %25, align 1, !tbaa !5
  %27 = and i64 %21, 4294967295
  %28 = getelementptr inbounds [501 x i8], [501 x i8]* %2, i64 0, i64 %27
  %29 = load i8, i8* %28, align 1, !tbaa !5
  %30 = icmp eq i8 %26, %29
  %31 = select i1 %30, i32 %23, i32 0
  %32 = add nuw i64 %20, 1
  %33 = trunc i64 %20 to i32
  %34 = xor i32 %33, -1
  %35 = add nsw i32 %18, %34
  %36 = add nuw nsw i64 %32, %16
  %37 = trunc i64 %36 to i32
  %38 = icmp slt i32 %35, %37
  br i1 %38, label %39, label %19, !llvm.loop !8

39:                                               ; preds = %19
  %40 = icmp eq i32 %31, 1
  br i1 %40, label %41, label %77

41:                                               ; preds = %39, %41
  %42 = phi i64 [ %47, %41 ], [ 0, %39 ]
  %43 = add nuw nsw i64 %42, %16
  %44 = getelementptr inbounds [501 x i8], [501 x i8]* %2, i64 0, i64 %43
  %45 = load i8, i8* %44, align 1, !tbaa !5
  call void @llvm.lifetime.start.p0i8(i64 1, i8* nonnull %1)
  store i8 %45, i8* %1, align 1, !tbaa !5
  %46 = call nonnull align 8 dereferenceable(8) %"class.std::basic_ostream"* @_ZSt16__ostream_insertIcSt11char_traitsIcEERSt13basic_ostreamIT_T0_ES6_PKS3_l(%"class.std::basic_ostream"* nonnull align 8 dereferenceable(8) @_ZSt4cout, i8* nonnull %1, i64 1)
  call void @llvm.lifetime.end.p0i8(i64 1, i8* nonnull %1)
  %47 = add nuw nsw i64 %42, 1
  %48 = icmp eq i64 %47, %13
  br i1 %48, label %49, label %41, !llvm.loop !10

49:                                               ; preds = %41
  %50 = load i8*, i8** bitcast (%"class.std::basic_ostream"* @_ZSt4cout to i8**), align 8, !tbaa !11
  %51 = getelementptr i8, i8* %50, i64 -24
  %52 = bitcast i8* %51 to i64*
  %53 = load i64, i64* %52, align 8
  %54 = add nsw i64 %53, 240
  %55 = getelementptr inbounds i8, i8* bitcast (%"class.std::basic_ostream"* @_ZSt4cout to i8*), i64 %54
  %56 = bitcast i8* %55 to %"class.std::ctype"**
  %57 = load %"class.std::ctype"*, %"class.std::ctype"** %56, align 8, !tbaa !13
  %58 = icmp eq %"class.std::ctype"* %57, null
  br i1 %58, label %59, label %60

59:                                               ; preds = %49
  call void @_ZSt16__throw_bad_castv() #8
  unreachable

60:                                               ; preds = %49
  %61 = getelementptr inbounds %"class.std::ctype", %"class.std::ctype"* %57, i64 0, i32 8
  %62 = load i8, i8* %61, align 8, !tbaa !17
  %63 = icmp eq i8 %62, 0
  br i1 %63, label %67, label %64

64:                                               ; preds = %60
  %65 = getelementptr inbounds %"class.std::ctype", %"class.std::ctype"* %57, i64 0, i32 9, i64 10
  %66 = load i8, i8* %65, align 1, !tbaa !5
  br label %73

67:                                               ; preds = %60
  call void @_ZNKSt5ctypeIcE13_M_widen_initEv(%"class.std::ctype"* nonnull align 8 dereferenceable(570) %57)
  %68 = bitcast %"class.std::ctype"* %57 to i8 (%"class.std::ctype"*, i8)***
  %69 = load i8 (%"class.std::ctype"*, i8)**, i8 (%"class.std::ctype"*, i8)*** %68, align 8, !tbaa !11
  %70 = getelementptr inbounds i8 (%"class.std::ctype"*, i8)*, i8 (%"class.std::ctype"*, i8)** %69, i64 6
  %71 = load i8 (%"class.std::ctype"*, i8)*, i8 (%"class.std::ctype"*, i8)** %70, align 8
  %72 = call signext i8 %71(%"class.std::ctype"* nonnull align 8 dereferenceable(570) %57, i8 signext 10)
  br label %73

73:                                               ; preds = %64, %67
  %74 = phi i8 [ %66, %64 ], [ %72, %67 ]
  %75 = call nonnull align 8 dereferenceable(8) %"class.std::basic_ostream"* @_ZNSo3putEc(%"class.std::basic_ostream"* nonnull align 8 dereferenceable(8) @_ZSt4cout, i8 signext %74)
  %76 = call nonnull align 8 dereferenceable(8) %"class.std::basic_ostream"* @_ZNSo5flushEv(%"class.std::basic_ostream"* nonnull align 8 dereferenceable(8) %75)
  br label %77

77:                                               ; preds = %39, %73
  %78 = add nuw i64 %16, 1
  %79 = getelementptr inbounds [501 x i8], [501 x i8]* %2, i64 0, i64 %78
  %80 = load i8, i8* %79, align 1, !tbaa !5
  %81 = icmp eq i8 %80, 0
  br i1 %81, label %82, label %15, !llvm.loop !19

82:                                               ; preds = %77, %10
  %83 = add nuw i64 %12, 1
  %84 = getelementptr inbounds [501 x i8], [501 x i8]* %2, i64 0, i64 %83
  %85 = load i8, i8* %84, align 1, !tbaa !5
  %86 = icmp eq i8 %85, 0
  br i1 %86, label %90, label %87, !llvm.loop !20

87:                                               ; preds = %82
  %88 = add nuw i64 %13, 1
  %89 = load i8, i8* %3, align 16, !tbaa !5
  br label %10

90:                                               ; preds = %82, %0
  call void @llvm.lifetime.end.p0i8(i64 501, i8* nonnull %3) #7
  ret i32 0
}

; Function Attrs: argmemonly mustprogress nofree nosync nounwind willreturn
declare void @llvm.lifetime.start.p0i8(i64 immarg, i8* nocapture) #4

; Function Attrs: argmemonly mustprogress nofree nosync nounwind willreturn
declare void @llvm.lifetime.end.p0i8(i64 immarg, i8* nocapture) #4

declare void @_ZSt17__istream_extractRSiPcl(%"class.std::basic_istream"* nonnull align 8 dereferenceable(16), i8*, i64) local_unnamed_addr #0

declare nonnull align 8 dereferenceable(8) %"class.std::basic_ostream"* @_ZSt16__ostream_insertIcSt11char_traitsIcEERSt13basic_ostreamIT_T0_ES6_PKS3_l(%"class.std::basic_ostream"* nonnull align 8 dereferenceable(8), i8*, i64) local_unnamed_addr #0

declare nonnull align 8 dereferenceable(8) %"class.std::basic_ostream"* @_ZNSo3putEc(%"class.std::basic_ostream"* nonnull align 8 dereferenceable(8), i8 signext) local_unnamed_addr #0

declare nonnull align 8 dereferenceable(8) %"class.std::basic_ostream"* @_ZNSo5flushEv(%"class.std::basic_ostream"* nonnull align 8 dereferenceable(8)) local_unnamed_addr #0

; Function Attrs: noreturn
declare void @_ZSt16__throw_bad_castv() local_unnamed_addr #5

declare void @_ZNKSt5ctypeIcE13_M_widen_initEv(%"class.std::ctype"* nonnull align 8 dereferenceable(570)) local_unnamed_addr #0

; Function Attrs: sspstrong uwtable
define internal void @_GLOBAL__sub_I_1002.cpp() #6 section ".text.startup" {
  tail call void @_ZNSt8ios_base4InitC1Ev(%"class.std::ios_base::Init"* nonnull align 1 dereferenceable(1) @_ZStL8__ioinit)
  %1 = tail call i32 @__cxa_atexit(void (i8*)* bitcast (void (%"class.std::ios_base::Init"*)* @_ZNSt8ios_base4InitD1Ev to void (i8*)*), i8* getelementptr inbounds (%"class.std::ios_base::Init", %"class.std::ios_base::Init"* @_ZStL8__ioinit, i64 0, i32 0), i8* nonnull @__dso_handle) #7
  ret void
}


!llvm.module.flags = !{!0, !1, !2, !3}
!llvm.ident = !{!4}

!0 = !{i32 1, !"wchar_size", i32 4}
!1 = !{i32 7, !"PIC Level", i32 2}
!2 = !{i32 7, !"PIE Level", i32 2}
!3 = !{i32 7, !"uwtable", i32 1}
!4 = !{!"clang version 13.0.0"}
!5 = !{!6, !6, i64 0}
!6 = !{!"omnipotent char", !7, i64 0}
!7 = !{!"Simple C++ TBAA"}
!8 = distinct !{!8, !9}
!9 = !{!"llvm.loop.mustprogress"}
!10 = distinct !{!10, !9}
!11 = !{!12, !12, i64 0}
!12 = !{!"vtable pointer", !7, i64 0}
!13 = !{!14, !15, i64 240}
!14 = !{!"_ZTSSt9basic_iosIcSt11char_traitsIcEE", !15, i64 216, !6, i64 224, !16, i64 225, !15, i64 232, !15, i64 240, !15, i64 248, !15, i64 256}
!15 = !{!"any pointer", !6, i64 0}
!16 = !{!"bool", !6, i64 0}
!17 = !{!18, !6, i64 56}
!18 = !{!"_ZTSSt5ctypeIcE", !15, i64 16, !16, i64 24, !15, i64 32, !15, i64 40, !15, i64 48, !6, i64 56, !6, i64 57, !6, i64 313, !6, i64 569}
!19 = distinct !{!19, !9}
!20 = distinct !{!20, !9, !21}
!21 = !{!"llvm.loop.unswitch.partial.disable"}
